target datalayout = "e-m:e-p270:32:32-p271:32:32-p272:64:64-i64:64-i128:128-f80:128-n8:16:32:64-S128"
target triple = "x86_64-pc-linux-gnu"

%"struct.OpenImageIO::v3_1_0::ROI" = type { i32, i32, i32, i32, i32, i32, i32, i32 }
%"class.OpenImageIO::v3_1_0::paropt" = type <{ i32, i16, i16, i64, ptr, i8, [7 x i8] }>
%"class.std::function" = type { %"class.std::_Function_base", ptr }
%"class.std::_Function_base" = type { %"union.std::_Any_data", ptr }
%"union.std::_Any_data" = type { %"union.std::_Nocopy_types" }
%"union.std::_Nocopy_types" = type { { i64, i64 } }
%class.anon.261 = type { ptr, ptr }

; Function Attrs: mustprogress nounwind uwtable
define linkonce_odr noundef ptr @_ZNSt9_Any_data9_M_accessEv(ptr noundef nonnull align 8 dereferenceable(16) %0) #8 comdat align 2 {
  %2 = alloca ptr, align 8
  store ptr %0, ptr %2, align 8, !tbaa !352
  %3 = load ptr, ptr %2, align 8
  %4 = getelementptr inbounds [16 x i8], ptr %3, i64 0, i64 0
  ret ptr %4
}

; Function Attrs: mustprogress nounwind uwtable
define internal void @_ZNSt14_Function_base13_Base_managerIZN11OpenImageIO6v3_1_0L21complex_to_polar_implIfN9Imath_3_14halfEEEbRNS2_8ImageBufERKS6_NS2_3ROIEiEUlSA_E_E9_M_createISB_EEvRSt9_Any_dataOT_St17integral_constantIbLb1EE(ptr noundef nonnull align 8 dereferenceable(16) %0, ptr noundef nonnull align 8 dereferenceable(16) %1) #8 align 2 {
  %3 = alloca ptr, align 8
  %4 = alloca ptr, align 8
  store ptr %0, ptr %3, align 8, !tbaa !352
  store ptr %1, ptr %4, align 8, !tbaa !133
  %5 = load ptr, ptr %3, align 8, !tbaa !352
  %6 = call noundef ptr @_ZNSt9_Any_data9_M_accessEv(ptr noundef nonnull align 8 dereferenceable(16) %5) #3
  %7 = load ptr, ptr %4, align 8, !tbaa !133
  call void @llvm.memcpy.p0.p0.i64(ptr align 8 %6, ptr align 8 %7, i64 16, i1 false), !tbaa.struct !1831
  ret void
}

; Function Attrs: mustprogress nounwind uwtable
define internal void @_ZNSt14_Function_base13_Base_managerIZN11OpenImageIO6v3_1_0L21complex_to_polar_implIfN9Imath_3_14halfEEEbRNS2_8ImageBufERKS6_NS2_3ROIEiEUlSA_E_E15_M_init_functorISB_EEvRSt9_Any_dataOT_(ptr noundef nonnull align 8 dereferenceable(16) %0, ptr noundef nonnull align 8 dereferenceable(16) %1) #8 align 2 personality ptr @__gxx_personality_v0 {
  %3 = alloca ptr, align 8
  %4 = alloca ptr, align 8
  store ptr %0, ptr %3, align 8, !tbaa !352
  store ptr %1, ptr %4, align 8, !tbaa !133
  %5 = load ptr, ptr %3, align 8, !tbaa !352
  %6 = load ptr, ptr %4, align 8, !tbaa !133
  invoke void @_ZNSt14_Function_base13_Base_managerIZN11OpenImageIO6v3_1_0L21complex_to_polar_implIfN9Imath_3_14halfEEEbRNS2_8ImageBufERKS6_NS2_3ROIEiEUlSA_E_E9_M_createISB_EEvRSt9_Any_dataOT_St17integral_constantIbLb1EE(ptr noundef nonnull align 8 dereferenceable(16) %5, ptr noundef nonnull align 8 dereferenceable(16) %6)
          to label %7 unwind label %8

7:                                                ; preds = %2
  ret void

8:                                                ; preds = %2
  %9 = landingpad { ptr, i32 }
          catch ptr null
  %10 = extractvalue { ptr, i32 } %9, 0
  call void @__clang_call_terminate(ptr %10) #30
  unreachable
}

; Function Attrs: mustprogress nounwind uwtable
define internal noundef zeroext i1 @_ZNSt14_Function_base13_Base_managerIZN11OpenImageIO6v3_1_0L21complex_to_polar_implIfN9Imath_3_14halfEEEbRNS2_8ImageBufERKS6_NS2_3ROIEiEUlSA_E_E21_M_not_empty_functionISB_EEbRKT_(ptr noundef nonnull align 8 dereferenceable(16) %0) #8 align 2 {
  %2 = alloca ptr, align 8
  store ptr %0, ptr %2, align 8, !tbaa !133
  ret i1 true
}

; Function Attrs: mustprogress nounwind uwtable
define linkonce_odr void @_ZNSt14_Function_baseC2Ev(ptr noundef nonnull align 8 dereferenceable(24) %0) unnamed_addr #8 comdat align 2 {
  %2 = alloca ptr, align 8
  store ptr %0, ptr %2, align 8, !tbaa !138
  %3 = load ptr, ptr %2, align 8
  %4 = getelementptr inbounds nuw %"class.std::_Function_base", ptr %3, i32 0, i32 0
  store ptr null, ptr %4, align 8, !tbaa !97
  %5 = getelementptr inbounds nuw %"class.std::_Function_base", ptr %3, i32 0, i32 1
  store ptr null, ptr %5, align 8, !tbaa !137
  ret void
}

; Function Attrs: mustprogress nounwind uwtable
define linkonce_odr void @_ZNSt14_Function_baseD2Ev(ptr noundef nonnull align 8 dereferenceable(24) %0) unnamed_addr #8 comdat align 2 personality ptr @__gxx_personality_v0 {
  %2 = alloca ptr, align 8
  store ptr %0, ptr %2, align 8, !tbaa !138
  %3 = load ptr, ptr %2, align 8
  %4 = getelementptr inbounds nuw %"class.std::_Function_base", ptr %3, i32 0, i32 1
  %5 = load ptr, ptr %4, align 8, !tbaa !137
  %6 = icmp ne ptr %5, null
  br i1 %6, label %7, label %14

7:                                                ; preds = %1
  %8 = getelementptr inbounds nuw %"class.std::_Function_base", ptr %3, i32 0, i32 1
  %9 = load ptr, ptr %8, align 8, !tbaa !137
  %10 = getelementptr inbounds nuw %"class.std::_Function_base", ptr %3, i32 0, i32 0
  %11 = getelementptr inbounds nuw %"class.std::_Function_base", ptr %3, i32 0, i32 0
  %12 = invoke noundef zeroext i1 %9(ptr noundef nonnull align 8 dereferenceable(16) %10, ptr noundef nonnull align 8 dereferenceable(16) %11, i32 noundef 3)
          to label %13 unwind label %15

13:                                               ; preds = %7
  br label %14

14:                                               ; preds = %13, %1
  ret void

15:                                               ; preds = %7
  %16 = landingpad { ptr, i32 }
          catch ptr null
  %17 = extractvalue { ptr, i32 } %16, 0
  call void @__clang_call_terminate(ptr %17) #30
  unreachable
}

; Function Attrs: mustprogress nounwind uwtable
define internal void @_ZNSt8functionIFvN11OpenImageIO6v3_1_03ROIEEEC2IZNS1_L21complex_to_polar_implIfN9Imath_3_14halfEEEbRNS1_8ImageBufERKS9_S2_iEUlS2_E_vEEOT_(ptr noundef nonnull align 8 dereferenceable(32) %0, ptr noundef nonnull align 8 dereferenceable(16) %1) unnamed_addr #8 align 2 {
  %3 = alloca ptr, align 8
  %4 = alloca ptr, align 8
  store ptr %0, ptr %3, align 8, !tbaa !115
  store ptr %1, ptr %4, align 8, !tbaa !133
  %5 = load ptr, ptr %3, align 8
  %6 = getelementptr inbounds i8, ptr %5, i64 0
  call void @llvm.memset.p0.i64(ptr align 8 %6, i8 0, i64 24, i1 false)
  call void @_ZNSt14_Function_baseC2Ev(ptr noundef nonnull align 8 dereferenceable(24) %5) #3
  %7 = getelementptr inbounds nuw %"class.std::function", ptr %5, i32 0, i32 1
  store ptr null, ptr %7, align 8, !tbaa !134
  %8 = load ptr, ptr %4, align 8, !tbaa !133
  %9 = call noundef zeroext i1 @_ZNSt14_Function_base13_Base_managerIZN11OpenImageIO6v3_1_0L21complex_to_polar_implIfN9Imath_3_14halfEEEbRNS2_8ImageBufERKS6_NS2_3ROIEiEUlSA_E_E21_M_not_empty_functionISB_EEbRKT_(ptr noundef nonnull align 8 dereferenceable(16) %8) #3
  br i1 %9, label %10, label %15

10:                                               ; preds = %2
  %11 = getelementptr inbounds nuw %"class.std::_Function_base", ptr %5, i32 0, i32 0
  %12 = load ptr, ptr %4, align 8, !tbaa !133
  call void @_ZNSt14_Function_base13_Base_managerIZN11OpenImageIO6v3_1_0L21complex_to_polar_implIfN9Imath_3_14halfEEEbRNS2_8ImageBufERKS6_NS2_3ROIEiEUlSA_E_E15_M_init_functorISB_EEvRSt9_Any_dataOT_(ptr noundef nonnull align 8 dereferenceable(16) %11, ptr noundef nonnull align 8 dereferenceable(16) %12) #3
  %13 = getelementptr inbounds nuw %"class.std::function", ptr %5, i32 0, i32 1
  store ptr @_ZNSt17_Function_handlerIFvN11OpenImageIO6v3_1_03ROIEEZNS1_L21complex_to_polar_implIfN9Imath_3_14halfEEEbRNS1_8ImageBufERKS7_S2_iEUlS2_E_E9_M_invokeERKSt9_Any_dataOS2_, ptr %13, align 8, !tbaa !134
  %14 = getelementptr inbounds nuw %"class.std::_Function_base", ptr %5, i32 0, i32 1
  store ptr @_ZNSt17_Function_handlerIFvN11OpenImageIO6v3_1_03ROIEEZNS1_L21complex_to_polar_implIfN9Imath_3_14halfEEEbRNS1_8ImageBufERKS7_S2_iEUlS2_E_E10_M_managerERSt9_Any_dataRKSD_St18_Manager_operation, ptr %14, align 8, !tbaa !137
  br label %15

15:                                               ; preds = %10, %2
  ret void
}

; Function Attrs: mustprogress nounwind uwtable
define linkonce_odr void @_ZN11OpenImageIO6v3_1_06paroptC2EiNS1_8SplitDirEm(ptr noundef nonnull align 8 dereferenceable(25) %0, i32 noundef %1, i16 noundef signext %2, i64 noundef %3) unnamed_addr #8 comdat align 2 {
  %5 = alloca ptr, align 8
  %6 = alloca i32, align 4
  %7 = alloca i16, align 2
  %8 = alloca i64, align 8
  store ptr %0, ptr %5, align 8, !tbaa !124
  store i32 %1, ptr %6, align 4, !tbaa !14
  store i16 %2, ptr %7, align 2, !tbaa !117
  store i64 %3, ptr %8, align 8, !tbaa !79
  %9 = load ptr, ptr %5, align 8
  %10 = getelementptr inbounds nuw %"class.OpenImageIO::v3_1_0::paropt", ptr %9, i32 0, i32 0
  %11 = load i32, ptr %6, align 4, !tbaa !14
  store i32 %11, ptr %10, align 8, !tbaa !126
  %12 = getelementptr inbounds nuw %"class.OpenImageIO::v3_1_0::paropt", ptr %9, i32 0, i32 1
  store i16 0, ptr %12, align 4, !tbaa !128
  %13 = getelementptr inbounds nuw %"class.OpenImageIO::v3_1_0::paropt", ptr %9, i32 0, i32 2
  %14 = load i16, ptr %7, align 2, !tbaa !117
  store i16 %14, ptr %13, align 2, !tbaa !129
  %15 = getelementptr inbounds nuw %"class.OpenImageIO::v3_1_0::paropt", ptr %9, i32 0, i32 3
  %16 = load i64, ptr %8, align 8, !tbaa !79
  store i64 %16, ptr %15, align 8, !tbaa !130
  %17 = getelementptr inbounds nuw %"class.OpenImageIO::v3_1_0::paropt", ptr %9, i32 0, i32 4
  store ptr null, ptr %17, align 8, !tbaa !131
  %18 = getelementptr inbounds nuw %"class.OpenImageIO::v3_1_0::paropt", ptr %9, i32 0, i32 5
  store i8 0, ptr %18, align 8, !tbaa !132
  ret void
}

; Function Attrs: mustprogress uwtable
define internal noundef zeroext i1 @_ZN11OpenImageIO6v3_1_0L21complex_to_polar_implIfN9Imath_3_14halfEEEbRNS0_8ImageBufERKS4_NS0_3ROIEi(ptr noundef nonnull align 8 dereferenceable(16) %0, ptr noundef nonnull align 8 dereferenceable(16) %1, ptr noundef byval(%"struct.OpenImageIO::v3_1_0::ROI") align 8 %2, i32 noundef %3) #6 personality ptr @__gxx_personality_v0 {
  %5 = alloca ptr, align 8
  %6 = alloca ptr, align 8
  %7 = alloca i32, align 4
  %8 = alloca %"struct.OpenImageIO::v3_1_0::ROI", align 8
  %9 = alloca %"class.OpenImageIO::v3_1_0::paropt", align 8
  %10 = alloca %"class.std::function", align 8
  %11 = alloca %class.anon.261, align 8
  %12 = alloca ptr, align 8
  %13 = alloca i32, align 4
  store ptr %0, ptr %5, align 8, !tbaa !10
  store ptr %1, ptr %6, align 8, !tbaa !10
  store i32 %3, ptr %7, align 4, !tbaa !14
  call void @llvm.memcpy.p0.p0.i64(ptr align 4 %8, ptr align 8 %2, i64 32, i1 false), !tbaa.struct !16
  %14 = load i32, ptr %7, align 4, !tbaa !14
  call void @_ZN11OpenImageIO6v3_1_06paroptC2EiNS1_8SplitDirEm(ptr noundef nonnull align 8 dereferenceable(25) %9, i32 noundef %14, i16 noundef signext 1, i64 noundef 1024) #3
  call void @llvm.lifetime.start.p0(i64 16, ptr %11) #3
  %15 = getelementptr inbounds nuw %class.anon.261, ptr %11, i32 0, i32 0
  %16 = load ptr, ptr %6, align 8, !tbaa !10
  store ptr %16, ptr %15, align 8, !tbaa !10
  %17 = getelementptr inbounds nuw %class.anon.261, ptr %11, i32 0, i32 1
  %18 = load ptr, ptr %5, align 8, !tbaa !10
  store ptr %18, ptr %17, align 8, !tbaa !10
  call void @_ZNSt8functionIFvN11OpenImageIO6v3_1_03ROIEEEC2IZNS1_L21complex_to_polar_implIfN9Imath_3_14halfEEEbRNS1_8ImageBufERKS9_S2_iEUlS2_E_vEEOT_(ptr noundef nonnull align 8 dereferenceable(32) %10, ptr noundef nonnull align 8 dereferenceable(16) %11) #3
  invoke void @_ZN11OpenImageIO6v3_1_012ImageBufAlgo14parallel_imageENS0_3ROIENS0_6paroptESt8functionIFvS2_EE(ptr noundef byval(%"struct.OpenImageIO::v3_1_0::ROI") align 8 %8, ptr noundef byval(%"class.OpenImageIO::v3_1_0::paropt") align 8 %9, ptr noundef %10)
          to label %19 unwind label %20

19:                                               ; preds = %4
  call void @_ZNSt14_Function_baseD2Ev(ptr noundef nonnull align 8 dereferenceable(32) %10) #3
  call void @llvm.lifetime.end.p0(i64 16, ptr %11) #3
  ret i1 true

20:                                               ; preds = %4
  %21 = landingpad { ptr, i32 }
          cleanup
  %22 = extractvalue { ptr, i32 } %21, 0
  store ptr %22, ptr %12, align 8
  %23 = extractvalue { ptr, i32 } %21, 1
  store i32 %23, ptr %13, align 4
  call void @_ZNSt14_Function_baseD2Ev(ptr noundef nonnull align 8 dereferenceable(32) %10) #3
  call void @llvm.lifetime.end.p0(i64 16, ptr %11) #3
  br label %24

24:                                               ; preds = %20
  %25 = load ptr, ptr %12, align 8
  %26 = load i32, ptr %13, align 4
  %27 = insertvalue { ptr, i32 } poison, ptr %25, 0
  %28 = insertvalue { ptr, i32 } %27, i32 %26, 1
  resume { ptr, i32 } %28
}